target datalayout = "e-m:e-p270:32:32-p271:32:32-p272:64:64-i64:64-i128:128-f80:128-n8:16:32:64-S128"
target triple = "x86_64-pc-linux-gnu"

%struct.reassembly_table = type { ptr, ptr, ptr, ptr, ptr }
%struct.reassembly_table_functions = type { ptr, ptr, ptr, ptr, ptr, ptr }

@proto_register_mp.ett = internal global [4 x ptr] [ptr @ett_mp, ptr @ett_mp_flags, ptr @ett_mp_fragment, ptr @ett_mp_fragments], align 16
@.str.117 = private unnamed_addr constant [23 x i8] c"PPP Multilink Protocol\00", align 1
@.str.118 = private unnamed_addr constant [7 x i8] c"PPP MP\00", align 1
@.str.119 = private unnamed_addr constant [3 x i8] c"mp\00", align 1
@proto_mp = internal global i32 0, align 4
@mp_handle = internal global ptr null, align 8
@mp_reassembly_table = internal global %struct.reassembly_table zeroinitializer, align 8
@addresses_reassembly_table_functions = external constant %struct.reassembly_table_functions, align 8
@.str.120 = private unnamed_addr constant [12 x i8] c"short_seqno\00", align 1
@.str.121 = private unnamed_addr constant [23 x i8] c"Short sequence numbers\00", align 1
@.str.122 = private unnamed_addr constant [57 x i8] c"Whether PPP Multilink frames use 12-bit sequence numbers\00", align 1
@mp_short_seqno = internal global i8 0, align 1
@.str.123 = private unnamed_addr constant [14 x i8] c"max_fragments\00", align 1
@.str.124 = private unnamed_addr constant [18 x i8] c"Maximum fragments\00", align 1
@.str.125 = private unnamed_addr constant [78 x i8] c"Maximum number of PPP Multilink fragments to try to reassemble into one frame\00", align 1
@mp_max_fragments = internal global i32 6, align 4
@.str.126 = private unnamed_addr constant [15 x i8] c"fragment_aging\00", align 1
@.str.127 = private unnamed_addr constant [31 x i8] c"Max unreassembled fragment age\00", align 1
@.str.128 = private unnamed_addr constant [56 x i8] c"Age off unreassembled fragments after this many packets\00", align 1
@mp_fragment_aging = internal global i32 4000, align 4

; Function Attrs: null_pointer_is_valid sspstrong uwtable
define hidden void @proto_register_mp() #1 {
  %1 = alloca ptr, align 8
  call void @llvm.lifetime.start.p0(i64 8, ptr %1) #6
  %2 = call i32 @proto_register_protocol(ptr noundef @.str.117, ptr noundef @.str.118, ptr noundef @.str.119)
  store i32 %2, ptr @proto_mp, align 4
  %3 = load i32, ptr @proto_mp, align 4
  %4 = call ptr @register_dissector(ptr noundef @.str.119, ptr noundef @dissect_mp, i32 noundef %3)
  store ptr %4, ptr @mp_handle, align 8
  %5 = load i32, ptr @proto_mp, align 4
  call void @proto_register_field_array(i32 noundef %5, ptr noundef @proto_register_mp.hf, i32 noundef 20)
  call void @proto_register_subtree_array(ptr noundef @proto_register_mp.ett, i32 noundef 4)
  call void @reassembly_table_register(ptr noundef @mp_reassembly_table, ptr noundef @addresses_reassembly_table_functions)
  %6 = load i32, ptr @proto_mp, align 4
  %7 = call ptr @prefs_register_protocol(i32 noundef %6, ptr noundef null)
  store ptr %7, ptr %1, align 8
  %8 = load ptr, ptr %1, align 8
  call void @prefs_register_bool_preference(ptr noundef %8, ptr noundef @.str.120, ptr noundef @.str.121, ptr noundef @.str.122, ptr noundef @mp_short_seqno)
  %9 = load ptr, ptr %1, align 8
  call void @prefs_register_uint_preference(ptr noundef %9, ptr noundef @.str.123, ptr noundef @.str.124, ptr noundef @.str.125, i32 noundef 10, ptr noundef @mp_max_fragments)
  %10 = load ptr, ptr %1, align 8
  call void @prefs_register_uint_preference(ptr noundef %10, ptr noundef @.str.126, ptr noundef @.str.127, ptr noundef @.str.128, i32 noundef 10, ptr noundef @mp_fragment_aging)
  call void @llvm.lifetime.end.p0(i64 8, ptr %1) #6
  ret void
}