; Function Attrs: null_pointer_is_valid sspstrong uwtable
define hidden void @proto_register_mp() local_unnamed_addr #1 {
  %1 = tail call i32 @proto_register_protocol(ptr noundef nonnull @.str.117, ptr noundef nonnull @.str.118, ptr noundef nonnull @.str.119)
  store i32 %1, ptr @proto_mp, align 4
  %2 = tail call ptr @register_dissector(ptr noundef nonnull @.str.119, ptr noundef nonnull @dissect_mp, i32 noundef %1)
  store ptr %2, ptr @mp_handle, align 8
  %3 = load i32, ptr @proto_mp, align 4
  tail call void @proto_register_field_array(i32 noundef %3, ptr noundef nonnull @proto_register_mp.hf, i32 noundef 20)
  tail call void @proto_register_subtree_array(ptr noundef nonnull @proto_register_mp.ett, i32 noundef 4)
  tail call void @reassembly_table_register(ptr noundef nonnull @mp_reassembly_table, ptr noundef nonnull @addresses_reassembly_table_functions)
  %4 = load i32, ptr @proto_mp, align 4
  %5 = tail call ptr @prefs_register_protocol(i32 noundef %4, ptr noundef null)
  tail call void @prefs_register_bool_preference(ptr noundef %5, ptr noundef nonnull @.str.120, ptr noundef nonnull @.str.121, ptr noundef nonnull @.str.122, ptr noundef nonnull @mp_short_seqno)
  tail call void @prefs_register_uint_preference(ptr noundef %5, ptr noundef nonnull @.str.123, ptr noundef nonnull @.str.124, ptr noundef nonnull @.str.125, i32 noundef 10, ptr noundef nonnull @mp_max_fragments)
  tail call void @prefs_register_uint_preference(ptr noundef %5, ptr noundef nonnull @.str.126, ptr noundef nonnull @.str.127, ptr noundef nonnull @.str.128, i32 noundef 10, ptr noundef nonnull @mp_fragment_aging)
  ret void
}